; Listing generated by Microsoft (R) Optimizing Compiler Version 19.12.25835.0 

	TITLE	C:\Users\zzw\Desktop\C code\Code_2018\BK_明解C语言\C6_日历\显示当前时间(asctime函数)\显示当前时间(asctime函数).cpp
	.686P
	.XMM
	include listing.inc
	.model	flat

INCLUDELIB MSVCRTD
INCLUDELIB OLDNAMES

PUBLIC	___local_stdio_printf_options
PUBLIC	__vfprintf_l
PUBLIC	??$__vcrt_va_start_verify_argument_type@QBD@@YAXXZ ; __vcrt_va_start_verify_argument_type<char const * const>
PUBLIC	_printf
PUBLIC	__vsnprintf_l
PUBLIC	__vsprintf_l
PUBLIC	_sprintf
PUBLIC	?asctime2@@YAPADPBUtm@@@Z			; asctime2
PUBLIC	_main
PUBLIC	?_OptionsStorage@?1??__local_stdio_printf_options@@9@4_KA ; `__local_stdio_printf_options'::`2'::_OptionsStorage
PUBLIC	??_C@_03KOEHGMDN@Sun?$AA@			; `string'
PUBLIC	??_C@_03PDAGKDH@Mon?$AA@			; `string'
PUBLIC	??_C@_03NAGEINEP@Tue?$AA@			; `string'
PUBLIC	??_C@_03MHOMLAJA@Wed?$AA@			; `string'
PUBLIC	??_C@_03IOFIKPDN@Thu?$AA@			; `string'
PUBLIC	??_C@_03IDIOELNC@Fri?$AA@			; `string'
PUBLIC	??_C@_03FEFJNEK@Sat?$AA@			; `string'
PUBLIC	??_C@_03JIHJHPIE@Jan?$AA@			; `string'
PUBLIC	??_C@_03HJBDCHOM@Feb?$AA@			; `string'
PUBLIC	??_C@_03ODNJBKGA@Mar?$AA@			; `string'
PUBLIC	??_C@_03LEOLGMJP@Apr?$AA@			; `string'
PUBLIC	??_C@_03CNMDKL@May?$AA@				; `string'
PUBLIC	??_C@_03IDFGHECI@Jun?$AA@			; `string'
PUBLIC	??_C@_03LBGABGKK@Jul?$AA@			; `string'
PUBLIC	??_C@_03IFJFEIGA@Aug?$AA@			; `string'
PUBLIC	??_C@_03GGCAPAJC@Sep?$AA@			; `string'
PUBLIC	??_C@_03BMAOKBAD@Oct?$AA@			; `string'
PUBLIC	??_C@_03JPJOFNIA@Nov?$AA@			; `string'
PUBLIC	??_C@_03MKABNOCG@Dec?$AA@			; `string'
PUBLIC	??_C@_0CD@CLPBCDEK@?$CF0?43s?5?$CF?43s?5?$CF02d?5?$CF02d?3?$CF02d?3?$CF02d?5?$CF@ ; `string'
PUBLIC	??_C@_0BD@JOGADOOM@?$LF?$LB?G?$LA?H?U?F?Z?$LK?M?J?$LB?$LM?d?$KD?$LK?$CFs?$AA@ ; `string'
EXTRN	__imp____acrt_iob_func:PROC
EXTRN	__imp__getchar:PROC
EXTRN	__imp____stdio_common_vfprintf:PROC
EXTRN	__imp____stdio_common_vsprintf:PROC
EXTRN	__imp__asctime:PROC
EXTRN	__imp___localtime64:PROC
EXTRN	__imp___time64:PROC
EXTRN	@_RTC_CheckStackVars@8:PROC
EXTRN	@__security_check_cookie@4:PROC
EXTRN	__RTC_CheckEsp:PROC
EXTRN	__RTC_InitBase:PROC
EXTRN	__RTC_Shutdown:PROC
EXTRN	___security_cookie:DWORD
;	COMDAT ?_OptionsStorage@?1??__local_stdio_printf_options@@9@4_KA
_BSS	SEGMENT
?_OptionsStorage@?1??__local_stdio_printf_options@@9@4_KA DQ 01H DUP (?) ; `__local_stdio_printf_options'::`2'::_OptionsStorage
_BSS	ENDS
_BSS	SEGMENT
?result@?1??asctime2@@YAPADPBUtm@@@Z@4PADA DB 019H DUP (?) ; `asctime2'::`2'::result
_BSS	ENDS
;	COMDAT rtc$TMZ
rtc$TMZ	SEGMENT
__RTC_Shutdown.rtc$TMZ DD FLAT:__RTC_Shutdown
rtc$TMZ	ENDS
;	COMDAT rtc$IMZ
rtc$IMZ	SEGMENT
__RTC_InitBase.rtc$IMZ DD FLAT:__RTC_InitBase
rtc$IMZ	ENDS
;	COMDAT ??_C@_0BD@JOGADOOM@?$LF?$LB?G?$LA?H?U?F?Z?$LK?M?J?$LB?$LM?d?$KD?$LK?$CFs?$AA@
CONST	SEGMENT
??_C@_0BD@JOGADOOM@?$LF?$LB?G?$LA?H?U?F?Z?$LK?M?J?$LB?$LM?d?$KD?$LK?$CFs?$AA@ DB 0b5H
	DB	0b1H, 0c7H, 0b0H, 0c8H, 0d5H, 0c6H, 0daH, 0baH, 0cdH, 0caH, 0b1H
	DB	0bcH, 0e4H, 0a3H, 0baH, '%s', 00H		; `string'
CONST	ENDS
;	COMDAT ??_C@_0CD@CLPBCDEK@?$CF0?43s?5?$CF?43s?5?$CF02d?5?$CF02d?3?$CF02d?3?$CF02d?5?$CF@
CONST	SEGMENT
??_C@_0CD@CLPBCDEK@?$CF0?43s?5?$CF?43s?5?$CF02d?5?$CF02d?3?$CF02d?3?$CF02d?5?$CF@ DB '%'
	DB	'0.3s %.3s %02d %02d:%02d:%02d %4d', 00H	; `string'
CONST	ENDS
;	COMDAT ??_C@_03MKABNOCG@Dec?$AA@
CONST	SEGMENT
??_C@_03MKABNOCG@Dec?$AA@ DB 'Dec', 00H			; `string'
CONST	ENDS
;	COMDAT ??_C@_03JPJOFNIA@Nov?$AA@
CONST	SEGMENT
??_C@_03JPJOFNIA@Nov?$AA@ DB 'Nov', 00H			; `string'
CONST	ENDS
;	COMDAT ??_C@_03BMAOKBAD@Oct?$AA@
CONST	SEGMENT
??_C@_03BMAOKBAD@Oct?$AA@ DB 'Oct', 00H			; `string'
CONST	ENDS
;	COMDAT ??_C@_03GGCAPAJC@Sep?$AA@
CONST	SEGMENT
??_C@_03GGCAPAJC@Sep?$AA@ DB 'Sep', 00H			; `string'
CONST	ENDS
;	COMDAT ??_C@_03IFJFEIGA@Aug?$AA@
CONST	SEGMENT
??_C@_03IFJFEIGA@Aug?$AA@ DB 'Aug', 00H			; `string'
CONST	ENDS
;	COMDAT ??_C@_03LBGABGKK@Jul?$AA@
CONST	SEGMENT
??_C@_03LBGABGKK@Jul?$AA@ DB 'Jul', 00H			; `string'
CONST	ENDS
;	COMDAT ??_C@_03IDFGHECI@Jun?$AA@
CONST	SEGMENT
??_C@_03IDFGHECI@Jun?$AA@ DB 'Jun', 00H			; `string'
CONST	ENDS
;	COMDAT ??_C@_03CNMDKL@May?$AA@
CONST	SEGMENT
??_C@_03CNMDKL@May?$AA@ DB 'May', 00H			; `string'
CONST	ENDS
;	COMDAT ??_C@_03LEOLGMJP@Apr?$AA@
CONST	SEGMENT
??_C@_03LEOLGMJP@Apr?$AA@ DB 'Apr', 00H			; `string'
CONST	ENDS
;	COMDAT ??_C@_03ODNJBKGA@Mar?$AA@
CONST	SEGMENT
??_C@_03ODNJBKGA@Mar?$AA@ DB 'Mar', 00H			; `string'
CONST	ENDS
;	COMDAT ??_C@_03HJBDCHOM@Feb?$AA@
CONST	SEGMENT
??_C@_03HJBDCHOM@Feb?$AA@ DB 'Feb', 00H			; `string'
CONST	ENDS
;	COMDAT ??_C@_03JIHJHPIE@Jan?$AA@
CONST	SEGMENT
??_C@_03JIHJHPIE@Jan?$AA@ DB 'Jan', 00H			; `string'
CONST	ENDS
;	COMDAT ??_C@_03FEFJNEK@Sat?$AA@
CONST	SEGMENT
??_C@_03FEFJNEK@Sat?$AA@ DB 'Sat', 00H			; `string'
CONST	ENDS
;	COMDAT ??_C@_03IDIOELNC@Fri?$AA@
CONST	SEGMENT
??_C@_03IDIOELNC@Fri?$AA@ DB 'Fri', 00H			; `string'
CONST	ENDS
;	COMDAT ??_C@_03IOFIKPDN@Thu?$AA@
CONST	SEGMENT
??_C@_03IOFIKPDN@Thu?$AA@ DB 'Thu', 00H			; `string'
CONST	ENDS
;	COMDAT ??_C@_03MHOMLAJA@Wed?$AA@
CONST	SEGMENT
??_C@_03MHOMLAJA@Wed?$AA@ DB 'Wed', 00H			; `string'
CONST	ENDS
;	COMDAT ??_C@_03NAGEINEP@Tue?$AA@
CONST	SEGMENT
??_C@_03NAGEINEP@Tue?$AA@ DB 'Tue', 00H			; `string'
CONST	ENDS
;	COMDAT ??_C@_03PDAGKDH@Mon?$AA@
CONST	SEGMENT
??_C@_03PDAGKDH@Mon?$AA@ DB 'Mon', 00H			; `string'
CONST	ENDS
;	COMDAT ??_C@_03KOEHGMDN@Sun?$AA@
CONST	SEGMENT
??_C@_03KOEHGMDN@Sun?$AA@ DB 'Sun', 00H			; `string'
CONST	ENDS
; Function compile flags: /Odtp /RTCsu /ZI
;	COMDAT _main
_TEXT	SEGMENT
_current$ = -16						; size = 8
__$ArrayPad$ = -4					; size = 4
_main	PROC						; COMDAT
; File c:\users\zzw\desktop\c code\code_2018\bk_明解c语言\c6_日历\显示当前时间(asctime函数)\显示当前时间(asctime函数).cpp
; Line 32
	push	ebp
	mov	ebp, esp
	sub	esp, 212				; 000000d4H
	push	ebx
	push	esi
	push	edi
	lea	edi, DWORD PTR [ebp-212]
	mov	ecx, 53					; 00000035H
	mov	eax, -858993460				; ccccccccH
	rep stosd
	mov	eax, DWORD PTR ___security_cookie
	xor	eax, ebp
	mov	DWORD PTR __$ArrayPad$[ebp], eax
; Line 33
	push	0
	call	_time
	add	esp, 4
	mov	DWORD PTR _current$[ebp], eax
	mov	DWORD PTR _current$[ebp+4], edx
; Line 34
	lea	eax, DWORD PTR _current$[ebp]
	push	eax
	call	_localtime
	add	esp, 4
	mov	esi, esp
	push	eax
	call	DWORD PTR __imp__asctime
	add	esp, 4
	cmp	esi, esp
	call	__RTC_CheckEsp
	push	eax
	push	OFFSET ??_C@_0BD@JOGADOOM@?$LF?$LB?G?$LA?H?U?F?Z?$LK?M?J?$LB?$LM?d?$KD?$LK?$CFs?$AA@
	call	_printf
	add	esp, 8
; Line 36
	mov	esi, esp
	call	DWORD PTR __imp__getchar
	cmp	esi, esp
	call	__RTC_CheckEsp
	mov	esi, esp
	call	DWORD PTR __imp__getchar
	cmp	esi, esp
	call	__RTC_CheckEsp
; Line 37
	xor	eax, eax
; Line 38
	push	edx
	mov	ecx, ebp
	push	eax
	lea	edx, DWORD PTR $LN5@main
	call	@_RTC_CheckStackVars@8
	pop	eax
	pop	edx
	pop	edi
	pop	esi
	pop	ebx
	mov	ecx, DWORD PTR __$ArrayPad$[ebp]
	xor	ecx, ebp
	call	@__security_check_cookie@4
	add	esp, 212				; 000000d4H
	cmp	ebp, esp
	call	__RTC_CheckEsp
	mov	esp, ebp
	pop	ebp
	ret	0
$LN5@main:
	DD	1
	DD	$LN4@main
$LN4@main:
	DD	-16					; fffffff0H
	DD	8
	DD	$LN3@main
$LN3@main:
	DB	99					; 00000063H
	DB	117					; 00000075H
	DB	114					; 00000072H
	DB	114					; 00000072H
	DB	101					; 00000065H
	DB	110					; 0000006eH
	DB	116					; 00000074H
	DB	0
_main	ENDP
_TEXT	ENDS
; Function compile flags: /Odtp /RTCsu /ZI
;	COMDAT ?asctime2@@YAPADPBUtm@@@Z
_TEXT	SEGMENT
_mon_name$ = -92					; size = 48
_wday_name$ = -36					; size = 28
__$ArrayPad$ = -4					; size = 4
_timeptr$ = 8						; size = 4
?asctime2@@YAPADPBUtm@@@Z PROC				; asctime2, COMDAT
; File c:\users\zzw\desktop\c code\code_2018\bk_明解c语言\c6_日历\显示当前时间(asctime函数)\显示当前时间(asctime函数).cpp
; Line 13
	push	ebp
	mov	ebp, esp
	sub	esp, 288				; 00000120H
	push	ebx
	push	esi
	push	edi
	lea	edi, DWORD PTR [ebp-288]
	mov	ecx, 72					; 00000048H
	mov	eax, -858993460				; ccccccccH
	rep stosd
	mov	eax, DWORD PTR ___security_cookie
	xor	eax, ebp
	mov	DWORD PTR __$ArrayPad$[ebp], eax
; Line 14
	mov	eax, DWORD PTR ??_C@_03KOEHGMDN@Sun?$AA@
	mov	DWORD PTR _wday_name$[ebp], eax
	mov	eax, DWORD PTR ??_C@_03PDAGKDH@Mon?$AA@
	mov	DWORD PTR _wday_name$[ebp+4], eax
	mov	eax, DWORD PTR ??_C@_03NAGEINEP@Tue?$AA@
	mov	DWORD PTR _wday_name$[ebp+8], eax
	mov	eax, DWORD PTR ??_C@_03MHOMLAJA@Wed?$AA@
	mov	DWORD PTR _wday_name$[ebp+12], eax
	mov	eax, DWORD PTR ??_C@_03IOFIKPDN@Thu?$AA@
	mov	DWORD PTR _wday_name$[ebp+16], eax
	mov	eax, DWORD PTR ??_C@_03IDIOELNC@Fri?$AA@
	mov	DWORD PTR _wday_name$[ebp+20], eax
	mov	eax, DWORD PTR ??_C@_03FEFJNEK@Sat?$AA@
	mov	DWORD PTR _wday_name$[ebp+24], eax
; Line 15
	mov	eax, DWORD PTR ??_C@_03JIHJHPIE@Jan?$AA@
	mov	DWORD PTR _mon_name$[ebp], eax
	mov	eax, DWORD PTR ??_C@_03HJBDCHOM@Feb?$AA@
	mov	DWORD PTR _mon_name$[ebp+4], eax
	mov	eax, DWORD PTR ??_C@_03ODNJBKGA@Mar?$AA@
	mov	DWORD PTR _mon_name$[ebp+8], eax
	mov	eax, DWORD PTR ??_C@_03LEOLGMJP@Apr?$AA@
	mov	DWORD PTR _mon_name$[ebp+12], eax
	mov	eax, DWORD PTR ??_C@_03CNMDKL@May?$AA@
	mov	DWORD PTR _mon_name$[ebp+16], eax
	mov	eax, DWORD PTR ??_C@_03IDFGHECI@Jun?$AA@
	mov	DWORD PTR _mon_name$[ebp+20], eax
	mov	eax, DWORD PTR ??_C@_03LBGABGKK@Jul?$AA@
	mov	DWORD PTR _mon_name$[ebp+24], eax
	mov	eax, DWORD PTR ??_C@_03IFJFEIGA@Aug?$AA@
	mov	DWORD PTR _mon_name$[ebp+28], eax
	mov	eax, DWORD PTR ??_C@_03GGCAPAJC@Sep?$AA@
	mov	DWORD PTR _mon_name$[ebp+32], eax
	mov	eax, DWORD PTR ??_C@_03BMAOKBAD@Oct?$AA@
	mov	DWORD PTR _mon_name$[ebp+36], eax
	mov	eax, DWORD PTR ??_C@_03JPJOFNIA@Nov?$AA@
	mov	DWORD PTR _mon_name$[ebp+40], eax
	mov	eax, DWORD PTR ??_C@_03MKABNOCG@Dec?$AA@
	mov	DWORD PTR _mon_name$[ebp+44], eax
; Line 19
	mov	eax, DWORD PTR _timeptr$[ebp]
	mov	ecx, DWORD PTR [eax+20]
	add	ecx, 1900				; 0000076cH
	push	ecx
	mov	edx, DWORD PTR _timeptr$[ebp]
	mov	eax, DWORD PTR [edx]
	push	eax
	mov	ecx, DWORD PTR _timeptr$[ebp]
	mov	edx, DWORD PTR [ecx+4]
	push	edx
	mov	eax, DWORD PTR _timeptr$[ebp]
	mov	ecx, DWORD PTR [eax+8]
	push	ecx
	mov	edx, DWORD PTR _timeptr$[ebp]
	mov	eax, DWORD PTR [edx+12]
	push	eax
	mov	ecx, DWORD PTR _timeptr$[ebp]
	mov	edx, DWORD PTR [ecx+16]
	lea	eax, DWORD PTR _mon_name$[ebp+edx*4]
	push	eax
	mov	ecx, DWORD PTR _timeptr$[ebp]
	mov	edx, DWORD PTR [ecx+24]
	lea	eax, DWORD PTR _wday_name$[ebp+edx*4]
	push	eax
	push	OFFSET ??_C@_0CD@CLPBCDEK@?$CF0?43s?5?$CF?43s?5?$CF02d?5?$CF02d?3?$CF02d?3?$CF02d?5?$CF@
	push	OFFSET ?result@?1??asctime2@@YAPADPBUtm@@@Z@4PADA
	call	_sprintf
	add	esp, 36					; 00000024H
; Line 28
	mov	eax, OFFSET ?result@?1??asctime2@@YAPADPBUtm@@@Z@4PADA
; Line 29
	push	edx
	mov	ecx, ebp
	push	eax
	lea	edx, DWORD PTR $LN6@asctime2
	call	@_RTC_CheckStackVars@8
	pop	eax
	pop	edx
	pop	edi
	pop	esi
	pop	ebx
	mov	ecx, DWORD PTR __$ArrayPad$[ebp]
	xor	ecx, ebp
	call	@__security_check_cookie@4
	add	esp, 288				; 00000120H
	cmp	ebp, esp
	call	__RTC_CheckEsp
	mov	esp, ebp
	pop	ebp
	ret	0
$LN6@asctime2:
	DD	2
	DD	$LN5@asctime2
$LN5@asctime2:
	DD	-36					; ffffffdcH
	DD	28					; 0000001cH
	DD	$LN3@asctime2
	DD	-92					; ffffffa4H
	DD	48					; 00000030H
	DD	$LN4@asctime2
$LN4@asctime2:
	DB	109					; 0000006dH
	DB	111					; 0000006fH
	DB	110					; 0000006eH
	DB	95					; 0000005fH
	DB	110					; 0000006eH
	DB	97					; 00000061H
	DB	109					; 0000006dH
	DB	101					; 00000065H
	DB	0
$LN3@asctime2:
	DB	119					; 00000077H
	DB	100					; 00000064H
	DB	97					; 00000061H
	DB	121					; 00000079H
	DB	95					; 0000005fH
	DB	110					; 0000006eH
	DB	97					; 00000061H
	DB	109					; 0000006dH
	DB	101					; 00000065H
	DB	0
?asctime2@@YAPADPBUtm@@@Z ENDP				; asctime2
_TEXT	ENDS
; Function compile flags: /Odtp /RTCsu /ZI
;	COMDAT _time
_TEXT	SEGMENT
__Time$ = 8						; size = 4
_time	PROC						; COMDAT
; File c:\program files (x86)\windows kits\10\include\10.0.16299.0\ucrt\time.h
; Line 534
	push	ebp
	mov	ebp, esp
	sub	esp, 192				; 000000c0H
	push	ebx
	push	esi
	push	edi
	lea	edi, DWORD PTR [ebp-192]
	mov	ecx, 48					; 00000030H
	mov	eax, -858993460				; ccccccccH
	rep stosd
; Line 535
	mov	esi, esp
	mov	eax, DWORD PTR __Time$[ebp]
	push	eax
	call	DWORD PTR __imp___time64
	add	esp, 4
	cmp	esi, esp
	call	__RTC_CheckEsp
; Line 536
	pop	edi
	pop	esi
	pop	ebx
	add	esp, 192				; 000000c0H
	cmp	ebp, esp
	call	__RTC_CheckEsp
	mov	esp, ebp
	pop	ebp
	ret	0
_time	ENDP
_TEXT	ENDS
; Function compile flags: /Odtp /RTCsu /ZI
;	COMDAT _localtime
_TEXT	SEGMENT
__Time$ = 8						; size = 4
_localtime PROC						; COMDAT
; File c:\program files (x86)\windows kits\10\include\10.0.16299.0\ucrt\time.h
; Line 508
	push	ebp
	mov	ebp, esp
	sub	esp, 192				; 000000c0H
	push	ebx
	push	esi
	push	edi
	lea	edi, DWORD PTR [ebp-192]
	mov	ecx, 48					; 00000030H
	mov	eax, -858993460				; ccccccccH
	rep stosd
; Line 511
	mov	esi, esp
	mov	eax, DWORD PTR __Time$[ebp]
	push	eax
	call	DWORD PTR __imp___localtime64
	add	esp, 4
	cmp	esi, esp
	call	__RTC_CheckEsp
; Line 513
	pop	edi
	pop	esi
	pop	ebx
	add	esp, 192				; 000000c0H
	cmp	ebp, esp
	call	__RTC_CheckEsp
	mov	esp, ebp
	pop	ebp
	ret	0
_localtime ENDP
_TEXT	ENDS
; Function compile flags: /Odtp /RTCsu /ZI
;	COMDAT _sprintf
_TEXT	SEGMENT
__ArgList$ = -20					; size = 4
__Result$ = -8						; size = 4
__Buffer$ = 8						; size = 4
__Format$ = 12						; size = 4
_sprintf PROC						; COMDAT
; File c:\program files (x86)\windows kits\10\include\10.0.16299.0\ucrt\stdio.h
; Line 1779
	push	ebp
	mov	ebp, esp
	sub	esp, 216				; 000000d8H
	push	ebx
	push	esi
	push	edi
	lea	edi, DWORD PTR [ebp-216]
	mov	ecx, 54					; 00000036H
	mov	eax, -858993460				; ccccccccH
	rep stosd
; Line 1782
	call	??$__vcrt_va_start_verify_argument_type@QBD@@YAXXZ ; __vcrt_va_start_verify_argument_type<char const * const>
	lea	eax, DWORD PTR __Format$[ebp+4]
	mov	DWORD PTR __ArgList$[ebp], eax
; Line 1786
	mov	eax, DWORD PTR __ArgList$[ebp]
	push	eax
	push	0
	mov	ecx, DWORD PTR __Format$[ebp]
	push	ecx
	mov	edx, DWORD PTR __Buffer$[ebp]
	push	edx
	call	__vsprintf_l
	add	esp, 16					; 00000010H
	mov	DWORD PTR __Result$[ebp], eax
; Line 1789
	mov	DWORD PTR __ArgList$[ebp], 0
; Line 1790
	mov	eax, DWORD PTR __Result$[ebp]
; Line 1791
	pop	edi
	pop	esi
	pop	ebx
	add	esp, 216				; 000000d8H
	cmp	ebp, esp
	call	__RTC_CheckEsp
	mov	esp, ebp
	pop	ebp
	ret	0
_sprintf ENDP
_TEXT	ENDS
; Function compile flags: /Odtp /RTCsu /ZI
;	COMDAT __vsprintf_l
_TEXT	SEGMENT
__Buffer$ = 8						; size = 4
__Format$ = 12						; size = 4
__Locale$ = 16						; size = 4
__ArgList$ = 20						; size = 4
__vsprintf_l PROC					; COMDAT
; File c:\program files (x86)\windows kits\10\include\10.0.16299.0\ucrt\stdio.h
; Line 1457
	push	ebp
	mov	ebp, esp
	sub	esp, 192				; 000000c0H
	push	ebx
	push	esi
	push	edi
	lea	edi, DWORD PTR [ebp-192]
	mov	ecx, 48					; 00000030H
	mov	eax, -858993460				; ccccccccH
	rep stosd
; Line 1460
	mov	eax, DWORD PTR __ArgList$[ebp]
	push	eax
	mov	ecx, DWORD PTR __Locale$[ebp]
	push	ecx
	mov	edx, DWORD PTR __Format$[ebp]
	push	edx
	push	-1
	mov	eax, DWORD PTR __Buffer$[ebp]
	push	eax
	call	__vsnprintf_l
	add	esp, 20					; 00000014H
; Line 1462
	pop	edi
	pop	esi
	pop	ebx
	add	esp, 192				; 000000c0H
	cmp	ebp, esp
	call	__RTC_CheckEsp
	mov	esp, ebp
	pop	ebp
	ret	0
__vsprintf_l ENDP
_TEXT	ENDS
; Function compile flags: /Odtp /RTCsu /ZI
;	COMDAT __vsnprintf_l
_TEXT	SEGMENT
tv74 = -208						; size = 4
__Result$ = -8						; size = 4
__Buffer$ = 8						; size = 4
__BufferCount$ = 12					; size = 4
__Format$ = 16						; size = 4
__Locale$ = 20						; size = 4
__ArgList$ = 24						; size = 4
__vsnprintf_l PROC					; COMDAT
; File c:\program files (x86)\windows kits\10\include\10.0.16299.0\ucrt\stdio.h
; Line 1387
	push	ebp
	mov	ebp, esp
	sub	esp, 208				; 000000d0H
	push	ebx
	push	esi
	push	edi
	lea	edi, DWORD PTR [ebp-208]
	mov	ecx, 52					; 00000034H
	mov	eax, -858993460				; ccccccccH
	rep stosd
; Line 1388
	mov	esi, esp
	mov	eax, DWORD PTR __ArgList$[ebp]
	push	eax
	mov	ecx, DWORD PTR __Locale$[ebp]
	push	ecx
	mov	edx, DWORD PTR __Format$[ebp]
	push	edx
	mov	eax, DWORD PTR __BufferCount$[ebp]
	push	eax
	mov	ecx, DWORD PTR __Buffer$[ebp]
	push	ecx
	call	___local_stdio_printf_options
	mov	edx, DWORD PTR [eax]
	or	edx, 1
	mov	eax, DWORD PTR [eax+4]
	push	eax
	push	edx
	call	DWORD PTR __imp____stdio_common_vsprintf
	add	esp, 28					; 0000001cH
	cmp	esi, esp
	call	__RTC_CheckEsp
	mov	DWORD PTR __Result$[ebp], eax
; Line 1392
	cmp	DWORD PTR __Result$[ebp], 0
	jge	SHORT $LN3@vsnprintf_
	mov	DWORD PTR tv74[ebp], -1
	jmp	SHORT $LN4@vsnprintf_
$LN3@vsnprintf_:
	mov	eax, DWORD PTR __Result$[ebp]
	mov	DWORD PTR tv74[ebp], eax
$LN4@vsnprintf_:
	mov	eax, DWORD PTR tv74[ebp]
; Line 1393
	pop	edi
	pop	esi
	pop	ebx
	add	esp, 208				; 000000d0H
	cmp	ebp, esp
	call	__RTC_CheckEsp
	mov	esp, ebp
	pop	ebp
	ret	0
__vsnprintf_l ENDP
_TEXT	ENDS
; Function compile flags: /Odtp /RTCsu /ZI
;	COMDAT _printf
_TEXT	SEGMENT
__ArgList$ = -20					; size = 4
__Result$ = -8						; size = 4
__Format$ = 8						; size = 4
_printf	PROC						; COMDAT
; File c:\program files (x86)\windows kits\10\include\10.0.16299.0\ucrt\stdio.h
; Line 952
	push	ebp
	mov	ebp, esp
	sub	esp, 216				; 000000d8H
	push	ebx
	push	esi
	push	edi
	lea	edi, DWORD PTR [ebp-216]
	mov	ecx, 54					; 00000036H
	mov	eax, -858993460				; ccccccccH
	rep stosd
; Line 955
	call	??$__vcrt_va_start_verify_argument_type@QBD@@YAXXZ ; __vcrt_va_start_verify_argument_type<char const * const>
	lea	eax, DWORD PTR __Format$[ebp+4]
	mov	DWORD PTR __ArgList$[ebp], eax
; Line 956
	mov	eax, DWORD PTR __ArgList$[ebp]
	push	eax
	push	0
	mov	ecx, DWORD PTR __Format$[ebp]
	push	ecx
	mov	esi, esp
	push	1
	call	DWORD PTR __imp____acrt_iob_func
	add	esp, 4
	cmp	esi, esp
	call	__RTC_CheckEsp
	push	eax
	call	__vfprintf_l
	add	esp, 16					; 00000010H
	mov	DWORD PTR __Result$[ebp], eax
; Line 957
	mov	DWORD PTR __ArgList$[ebp], 0
; Line 958
	mov	eax, DWORD PTR __Result$[ebp]
; Line 959
	pop	edi
	pop	esi
	pop	ebx
	add	esp, 216				; 000000d8H
	cmp	ebp, esp
	call	__RTC_CheckEsp
	mov	esp, ebp
	pop	ebp
	ret	0
_printf	ENDP
_TEXT	ENDS
; Function compile flags: /Odtp /RTCsu /ZI
;	COMDAT ??$__vcrt_va_start_verify_argument_type@QBD@@YAXXZ
_TEXT	SEGMENT
??$__vcrt_va_start_verify_argument_type@QBD@@YAXXZ PROC	; __vcrt_va_start_verify_argument_type<char const * const>, COMDAT
; File c:\program files (x86)\microsoft visual studio\2017\community\vc\tools\msvc\14.12.25827\include\vadefs.h
; Line 150
	push	ebp
	mov	ebp, esp
	sub	esp, 192				; 000000c0H
	push	ebx
	push	esi
	push	edi
	lea	edi, DWORD PTR [ebp-192]
	mov	ecx, 48					; 00000030H
	mov	eax, -858993460				; ccccccccH
	rep stosd
; Line 152
	pop	edi
	pop	esi
	pop	ebx
	mov	esp, ebp
	pop	ebp
	ret	0
??$__vcrt_va_start_verify_argument_type@QBD@@YAXXZ ENDP	; __vcrt_va_start_verify_argument_type<char const * const>
_TEXT	ENDS
; Function compile flags: /Odtp /RTCsu /ZI
;	COMDAT __vfprintf_l
_TEXT	SEGMENT
__Stream$ = 8						; size = 4
__Format$ = 12						; size = 4
__Locale$ = 16						; size = 4
__ArgList$ = 20						; size = 4
__vfprintf_l PROC					; COMDAT
; File c:\program files (x86)\windows kits\10\include\10.0.16299.0\ucrt\stdio.h
; Line 640
	push	ebp
	mov	ebp, esp
	sub	esp, 192				; 000000c0H
	push	ebx
	push	esi
	push	edi
	lea	edi, DWORD PTR [ebp-192]
	mov	ecx, 48					; 00000030H
	mov	eax, -858993460				; ccccccccH
	rep stosd
; Line 641
	mov	esi, esp
	mov	eax, DWORD PTR __ArgList$[ebp]
	push	eax
	mov	ecx, DWORD PTR __Locale$[ebp]
	push	ecx
	mov	edx, DWORD PTR __Format$[ebp]
	push	edx
	mov	eax, DWORD PTR __Stream$[ebp]
	push	eax
	call	___local_stdio_printf_options
	mov	ecx, DWORD PTR [eax+4]
	push	ecx
	mov	edx, DWORD PTR [eax]
	push	edx
	call	DWORD PTR __imp____stdio_common_vfprintf
	add	esp, 24					; 00000018H
	cmp	esi, esp
	call	__RTC_CheckEsp
; Line 642
	pop	edi
	pop	esi
	pop	ebx
	add	esp, 192				; 000000c0H
	cmp	ebp, esp
	call	__RTC_CheckEsp
	mov	esp, ebp
	pop	ebp
	ret	0
__vfprintf_l ENDP
_TEXT	ENDS
; Function compile flags: /Odtp /RTCsu /ZI
;	COMDAT ___local_stdio_printf_options
_TEXT	SEGMENT
___local_stdio_printf_options PROC			; COMDAT
; File c:\program files (x86)\windows kits\10\include\10.0.16299.0\ucrt\corecrt_stdio_config.h
; Line 85
	push	ebp
	mov	ebp, esp
	sub	esp, 192				; 000000c0H
	push	ebx
	push	esi
	push	edi
	lea	edi, DWORD PTR [ebp-192]
	mov	ecx, 48					; 00000030H
	mov	eax, -858993460				; ccccccccH
	rep stosd
; Line 87
	mov	eax, OFFSET ?_OptionsStorage@?1??__local_stdio_printf_options@@9@4_KA ; `__local_stdio_printf_options'::`2'::_OptionsStorage
; Line 88
	pop	edi
	pop	esi
	pop	ebx
	mov	esp, ebp
	pop	ebp
	ret	0
___local_stdio_printf_options ENDP
_TEXT	ENDS
END
